target datalayout = "e-m:e-p270:32:32-p271:32:32-p272:64:64-i64:64-i128:128-f80:128-n8:16:32:64-S128"
target triple = "x86_64-pc-linux-gnu"

%struct.IAMFCodecConfig = type { i32, i32, i32, i32, i32, i32, i32, ptr }

@ipcm_decoder_config.sample_fmt = internal constant [2 x [3 x i32]] [[3 x i32] [i32 65537, i32 65549, i32 65545], [3 x i32] [i32 65536, i32 65548, i32 65544]], align 16

; Function Attrs: alwaysinline nounwind uwtable
define internal i64 @avio_tell(ptr noundef %0) #6 {
  %2 = alloca ptr, align 8
  store ptr %0, ptr %2, align 8, !tbaa !26
  %3 = load ptr, ptr %2, align 8, !tbaa !26
  %4 = call i64 @avio_seek(ptr noundef %3, i64 noundef 0, i32 noundef 1)
  ret i64 %4
}

; Function Attrs: nounwind uwtable
define internal i32 @ipcm_decoder_config(ptr noundef %0, ptr noundef %1, i32 noundef %2) #0 {
  %4 = alloca i32, align 4
  %5 = alloca ptr, align 8
  %6 = alloca ptr, align 8
  %7 = alloca i32, align 4
  %8 = alloca i32, align 4
  %9 = alloca i32, align 4
  %10 = alloca i32, align 4
  store ptr %0, ptr %5, align 8, !tbaa !30
  store ptr %1, ptr %6, align 8, !tbaa !26
  store i32 %2, ptr %7, align 4, !tbaa !9
  call void @llvm.lifetime.start.p0(i64 4, ptr %8) #12
  %11 = load ptr, ptr %6, align 8, !tbaa !26
  %12 = call i32 @avio_r8(ptr noundef %11)
  store i32 %12, ptr %8, align 4, !tbaa !9
  call void @llvm.lifetime.start.p0(i64 4, ptr %9) #12
  %13 = load ptr, ptr %6, align 8, !tbaa !26
  %14 = call i32 @avio_r8(ptr noundef %13)
  %15 = sdiv i32 %14, 8
  %16 = sub nsw i32 %15, 2
  store i32 %16, ptr %9, align 4, !tbaa !9
  %17 = load i32, ptr %8, align 4, !tbaa !9
  %18 = icmp sgt i32 %17, 1
  br i1 %18, label %27, label %19

19:                                               ; preds = %3
  %20 = load i32, ptr %9, align 4, !tbaa !9
  %21 = icmp ugt i32 %20, 2
  br i1 %21, label %27, label %22

22:                                               ; preds = %19
  %23 = load ptr, ptr %5, align 8, !tbaa !30
  %24 = getelementptr inbounds nuw %struct.IAMFCodecConfig, ptr %23, i32 0, i32 4
  %25 = load i32, ptr %24, align 8, !tbaa !48
  %26 = icmp ne i32 %25, 0
  br i1 %26, label %27, label %28

27:                                               ; preds = %22, %19, %3
  store i32 -1094995529, ptr %4, align 4
  store i32 1, ptr %10, align 4
  br label %50

28:                                               ; preds = %22
  %29 = load i32, ptr %8, align 4, !tbaa !9
  %30 = sext i32 %29 to i64
  %31 = getelementptr inbounds [2 x [3 x i32]], ptr @ipcm_decoder_config.sample_fmt, i64 0, i64 %30
  %32 = load i32, ptr %9, align 4, !tbaa !9
  %33 = sext i32 %32 to i64
  %34 = getelementptr inbounds [3 x i32], ptr %31, i64 0, i64 %33
  %35 = load i32, ptr %34, align 4, !tbaa !9
  %36 = load ptr, ptr %5, align 8, !tbaa !30
  %37 = getelementptr inbounds nuw %struct.IAMFCodecConfig, ptr %36, i32 0, i32 1
  store i32 %35, ptr %37, align 4, !tbaa !46
  %38 = load ptr, ptr %6, align 8, !tbaa !26
  %39 = call i32 @avio_rb32(ptr noundef %38)
  %40 = load ptr, ptr %5, align 8, !tbaa !30
  %41 = getelementptr inbounds nuw %struct.IAMFCodecConfig, ptr %40, i32 0, i32 5
  store i32 %39, ptr %41, align 4, !tbaa !84
  %42 = load i32, ptr %7, align 4, !tbaa !9
  %43 = sext i32 %42 to i64
  %44 = load ptr, ptr %6, align 8, !tbaa !26
  %45 = call i64 @avio_tell(ptr noundef %44)
  %46 = sub nsw i64 %43, %45
  %47 = icmp ne i64 %46, 0
  br i1 %47, label %48, label %49

48:                                               ; preds = %28
  store i32 -1094995529, ptr %4, align 4
  store i32 1, ptr %10, align 4
  br label %50

49:                                               ; preds = %28
  store i32 0, ptr %4, align 4
  store i32 1, ptr %10, align 4
  br label %50

50:                                               ; preds = %49, %48, %27
  call void @llvm.lifetime.end.p0(i64 4, ptr %9) #12
  call void @llvm.lifetime.end.p0(i64 4, ptr %8) #12
  %51 = load i32, ptr %4, align 4
  ret i32 %51
}